; Function Attrs: nounwind uwtable
define dso_local i64 @pg_regerror(i32 noundef %0, ptr noundef readnone captures(none) %1, ptr noundef %2, i64 noundef %3) local_unnamed_addr #0 {
  %5 = alloca [88 x i8], align 16
  call void @llvm.lifetime.start.p0(i64 88, ptr nonnull %5) #7
  switch i32 %0, label %.preheader [
    i32 101, label %.preheader37.preheader
    i32 102, label %16
  ]

.preheader37.preheader:                           ; preds = %4
  %6 = tail call i32 @strcmp(ptr noundef nonnull dereferenceable(9) @.str.2, ptr noundef nonnull dereferenceable(1) %2) #8
  %7 = icmp eq i32 %6, 0
  br i1 %7, label %.preheader37._crit_edge, label %.lr.ph

.lr.ph:                                           ; preds = %.preheader37.preheader, %.preheader37
  %.04044 = phi ptr [ %8, %.preheader37 ], [ @rerrs, %.preheader37.preheader ]
  %8 = getelementptr inbounds nuw i8, ptr %.04044, i64 24
  %9 = load i32, ptr %8, align 8
  %10 = icmp sgt i32 %9, -1
  br i1 %10, label %.preheader37, label %.preheader37._crit_edge, !llvm.loop !4

.preheader37:                                     ; preds = %.lr.ph
  %11 = getelementptr inbounds nuw i8, ptr %.04044, i64 32
  %12 = load ptr, ptr %11, align 8
  %13 = tail call i32 @strcmp(ptr noundef nonnull dereferenceable(1) %12, ptr noundef nonnull dereferenceable(1) %2) #8
  %14 = icmp eq i32 %13, 0
  br i1 %14, label %.preheader37._crit_edge, label %.lr.ph, !llvm.loop !4

.preheader37._crit_edge:                          ; preds = %.lr.ph, %.preheader37, %.preheader37.preheader
  %.lcssa38 = phi i32 [ 0, %.preheader37.preheader ], [ %9, %.preheader37 ], [ %9, %.lr.ph ]
  %15 = call i32 (ptr, ptr, ...) @pg_sprintf(ptr noundef nonnull %5, ptr noundef nonnull @.str, i32 noundef %.lcssa38) #7
  br label %42

16:                                               ; preds = %4
  %17 = tail call i64 @strtol(ptr noundef nonnull captures(none) %2, ptr noundef null, i32 noundef 10) #7
  %18 = trunc i64 %17 to i32
  br label %19

19:                                               ; preds = %19, %16
  %.1 = phi ptr [ @rerrs, %16 ], [ %23, %19 ]
  %20 = load i32, ptr %.1, align 8
  %21 = icmp slt i32 %20, 0
  %22 = icmp eq i32 %20, %18
  %or.cond = select i1 %21, i1 true, i1 %22
  %23 = getelementptr inbounds nuw i8, ptr %.1, i64 24
  br i1 %or.cond, label %24, label %19, !llvm.loop !6

24:                                               ; preds = %19
  %25 = icmp sgt i32 %20, -1
  br i1 %25, label %26, label %29

26:                                               ; preds = %24
  %27 = getelementptr inbounds nuw i8, ptr %.1, i64 8
  %28 = load ptr, ptr %27, align 8
  br label %42

29:                                               ; preds = %24
  %30 = call i32 (ptr, ptr, ...) @pg_sprintf(ptr noundef nonnull %5, ptr noundef nonnull @.str.1, i32 noundef %18) #7
  br label %42

.preheader:                                       ; preds = %4, %.preheader
  %.2 = phi ptr [ %34, %.preheader ], [ @rerrs, %4 ]
  %31 = load i32, ptr %.2, align 8
  %32 = icmp slt i32 %31, 0
  %33 = icmp eq i32 %31, %0
  %or.cond36 = or i1 %32, %33
  %34 = getelementptr inbounds nuw i8, ptr %.2, i64 24
  br i1 %or.cond36, label %35, label %.preheader, !llvm.loop !7

35:                                               ; preds = %.preheader
  %36 = icmp sgt i32 %31, -1
  br i1 %36, label %37, label %40

37:                                               ; preds = %35
  %38 = getelementptr inbounds nuw i8, ptr %.2, i64 16
  %39 = load ptr, ptr %38, align 8
  br label %42

40:                                               ; preds = %35
  %41 = call i32 (ptr, ptr, ...) @pg_sprintf(ptr noundef nonnull %5, ptr noundef nonnull @unk, i32 noundef %0) #7
  br label %42

42:                                               ; preds = %37, %40, %26, %29, %.preheader37._crit_edge
  %.032 = phi ptr [ %39, %37 ], [ %5, %40 ], [ %28, %26 ], [ %5, %29 ], [ %5, %.preheader37._crit_edge ]
  %43 = call i64 @strlen(ptr noundef nonnull dereferenceable(1) %.032) #8
  %44 = add i64 %43, 1
  %.not = icmp eq i64 %3, 0
  br i1 %.not, label %52, label %45

45:                                               ; preds = %42
  %46 = icmp ugt i64 %3, %44
  br i1 %46, label %47, label %49

47:                                               ; preds = %45
  %48 = call ptr @strcpy(ptr noundef nonnull dereferenceable(1) %2, ptr noundef nonnull dereferenceable(1) %.032) #7
  br label %52

49:                                               ; preds = %45
  %50 = add i64 %3, -1
  call void @llvm.memcpy.p0.p0.i64(ptr align 1 %2, ptr nonnull align 1 %.032, i64 %50, i1 false)
  %51 = getelementptr inbounds nuw i8, ptr %2, i64 %50
  store i8 0, ptr %51, align 1
  br label %52

52:                                               ; preds = %47, %49, %42
  call void @llvm.lifetime.end.p0(i64 88, ptr nonnull %5) #7
  ret i64 %44
}